target datalayout = "e-m:e-p270:32:32-p271:32:32-p272:64:64-i64:64-i128:128-f80:128-n8:16:32:64-S128"
target triple = "x86_64-pc-linux-gnu"

%"class.cvc5::internal::FloatingPointSize" = type { i32, i32 }
%"class.cvc5::internal::symfpuLiteral::wrappedBitVector.0" = type { %"class.cvc5::internal::BitVector" }
%"class.cvc5::internal::BitVector" = type { i32, %"class.cvc5::internal::Integer" }
%"class.cvc5::internal::Integer" = type { %class.__gmp_expr }
%class.__gmp_expr = type { [1 x %struct.__mpz_struct] }
%struct.__mpz_struct = type { i32, i32, ptr }
%"class.cvc5::internal::FloatingPointLiteral" = type { %"class.cvc5::internal::FloatingPointSize", %"class.symfpu::unpackedFloat" }
%"class.symfpu::unpackedFloat" = type { i8, i8, i8, i8, %"class.cvc5::internal::symfpuLiteral::wrappedBitVector", %"class.cvc5::internal::symfpuLiteral::wrappedBitVector.0" }
%"class.cvc5::internal::symfpuLiteral::wrappedBitVector" = type { %"class.cvc5::internal::BitVector" }
%"struct.cvc5::internal::BitVectorSize" = type { i32 }

; Function Attrs: mustprogress nounwind uwtable
define linkonce_odr hidden void @_ZN10__gmp_exprIA1_12__mpz_structS1_ED2Ev(ptr noundef nonnull align 8 dereferenceable(16) %0) unnamed_addr #5 comdat align 2 personality ptr @__gxx_personality_v0 {
  %2 = alloca ptr, align 8
  store ptr %0, ptr %2, align 8, !tbaa !55
  %3 = load ptr, ptr %2, align 8
  %4 = getelementptr inbounds nuw %class.__gmp_expr, ptr %3, i32 0, i32 0
  %5 = getelementptr inbounds [1 x %struct.__mpz_struct], ptr %4, i64 0, i64 0
  invoke void @__gmpz_clear(ptr noundef %5)
          to label %6 unwind label %7

6:                                                ; preds = %1
  ret void

7:                                                ; preds = %1
  %8 = landingpad { ptr, i32 }
          catch ptr null
  %9 = extractvalue { ptr, i32 } %8, 0
  call void @__clang_call_terminate(ptr %9) #14
  unreachable
}

; Function Attrs: mustprogress uwtable
define linkonce_odr hidden void @_ZN10__gmp_exprIA1_12__mpz_structS1_EC2ERKS2_(ptr noundef nonnull align 8 dereferenceable(16) %0, ptr noundef nonnull align 8 dereferenceable(16) %1) unnamed_addr #4 comdat align 2 {
  %3 = alloca ptr, align 8
  %4 = alloca ptr, align 8
  store ptr %0, ptr %3, align 8, !tbaa !55
  store ptr %1, ptr %4, align 8, !tbaa !55
  %5 = load ptr, ptr %3, align 8
  %6 = getelementptr inbounds nuw %class.__gmp_expr, ptr %5, i32 0, i32 0
  %7 = getelementptr inbounds [1 x %struct.__mpz_struct], ptr %6, i64 0, i64 0
  %8 = load ptr, ptr %4, align 8, !tbaa !55
  %9 = getelementptr inbounds nuw %class.__gmp_expr, ptr %8, i32 0, i32 0
  %10 = getelementptr inbounds [1 x %struct.__mpz_struct], ptr %9, i64 0, i64 0
  call void @__gmpz_init_set(ptr noundef %7, ptr noundef %10)
  ret void
}

; Function Attrs: mustprogress nounwind uwtable
define linkonce_odr hidden void @_ZN4cvc58internal7IntegerD2Ev(ptr noundef nonnull align 8 dereferenceable(16) %0) unnamed_addr #5 comdat align 2 {
  %2 = alloca ptr, align 8
  store ptr %0, ptr %2, align 8, !tbaa !53
  %3 = load ptr, ptr %2, align 8
  %4 = getelementptr inbounds nuw %"class.cvc5::internal::Integer", ptr %3, i32 0, i32 0
  call void @_ZN10__gmp_exprIA1_12__mpz_structS1_ED2Ev(ptr noundef nonnull align 8 dereferenceable(16) %4) #3
  ret void
}

; Function Attrs: mustprogress uwtable
define linkonce_odr hidden void @_ZN4cvc58internal7IntegerC2ERKS1_(ptr noundef nonnull align 8 dereferenceable(16) %0, ptr noundef nonnull align 8 dereferenceable(16) %1) unnamed_addr #4 comdat align 2 {
  %3 = alloca ptr, align 8
  %4 = alloca ptr, align 8
  store ptr %0, ptr %3, align 8, !tbaa !53
  store ptr %1, ptr %4, align 8, !tbaa !53
  %5 = load ptr, ptr %3, align 8
  %6 = getelementptr inbounds nuw %"class.cvc5::internal::Integer", ptr %5, i32 0, i32 0
  %7 = load ptr, ptr %4, align 8, !tbaa !53
  %8 = getelementptr inbounds nuw %"class.cvc5::internal::Integer", ptr %7, i32 0, i32 0
  call void @_ZN10__gmp_exprIA1_12__mpz_structS1_EC2ERKS2_(ptr noundef nonnull align 8 dereferenceable(16) %6, ptr noundef nonnull align 8 dereferenceable(16) %8)
  ret void
}

; Function Attrs: mustprogress nounwind uwtable
define linkonce_odr hidden void @_ZN4cvc58internal9BitVectorD2Ev(ptr noundef nonnull align 8 dereferenceable(24) %0) unnamed_addr #5 comdat align 2 {
  %2 = alloca ptr, align 8
  store ptr %0, ptr %2, align 8, !tbaa !12
  %3 = load ptr, ptr %2, align 8
  %4 = getelementptr inbounds nuw %"class.cvc5::internal::BitVector", ptr %3, i32 0, i32 1
  call void @_ZN4cvc58internal7IntegerD2Ev(ptr noundef nonnull align 8 dereferenceable(16) %4) #3
  ret void
}

; Function Attrs: inlinehint mustprogress uwtable
define linkonce_odr hidden void @_ZN4cvc58internal9BitVectorC2ERKS1_(ptr noundef nonnull align 8 dereferenceable(24) %0, ptr noundef nonnull align 8 dereferenceable(24) %1) unnamed_addr #7 comdat align 2 {
  %3 = alloca ptr, align 8
  %4 = alloca ptr, align 8
  store ptr %0, ptr %3, align 8, !tbaa !12
  store ptr %1, ptr %4, align 8, !tbaa !12
  %5 = load ptr, ptr %3, align 8
  %6 = getelementptr inbounds nuw %"class.cvc5::internal::BitVector", ptr %5, i32 0, i32 0
  %7 = load ptr, ptr %4, align 8, !tbaa !12
  %8 = getelementptr inbounds nuw %"class.cvc5::internal::BitVector", ptr %7, i32 0, i32 0
  %9 = load i32, ptr %8, align 8, !tbaa !35
  store i32 %9, ptr %6, align 8, !tbaa !35
  %10 = getelementptr inbounds nuw %"class.cvc5::internal::BitVector", ptr %5, i32 0, i32 1
  %11 = load ptr, ptr %4, align 8, !tbaa !12
  %12 = getelementptr inbounds nuw %"class.cvc5::internal::BitVector", ptr %11, i32 0, i32 1
  call void @_ZN4cvc58internal7IntegerC2ERKS1_(ptr noundef nonnull align 8 dereferenceable(16) %10, ptr noundef nonnull align 8 dereferenceable(16) %12)
  ret void
}

; Function Attrs: mustprogress uwtable
define linkonce_odr hidden void @_ZN4cvc58internal13symfpuLiteral16wrappedBitVectorILb1EEC2ERKNS0_9BitVectorE(ptr noundef nonnull align 8 dereferenceable(24) %0, ptr noundef nonnull align 8 dereferenceable(24) %1) unnamed_addr #4 comdat align 2 {
  %3 = alloca ptr, align 8
  %4 = alloca ptr, align 8
  store ptr %0, ptr %3, align 8, !tbaa !29
  store ptr %1, ptr %4, align 8, !tbaa !12
  %5 = load ptr, ptr %3, align 8
  %6 = load ptr, ptr %4, align 8, !tbaa !12
  call void @_ZN4cvc58internal9BitVectorC2ERKS1_(ptr noundef nonnull align 8 dereferenceable(24) %5, ptr noundef nonnull align 8 dereferenceable(24) %6)
  ret void
}

; Function Attrs: mustprogress nounwind uwtable
define linkonce_odr hidden noundef i32 @_ZNK4cvc58internal13BitVectorSizecvjEv(ptr noundef nonnull align 4 dereferenceable(4) %0) #5 comdat align 2 {
  %2 = alloca ptr, align 8
  store ptr %0, ptr %2, align 8, !tbaa !49
  %3 = load ptr, ptr %2, align 8
  %4 = getelementptr inbounds nuw %"struct.cvc5::internal::BitVectorSize", ptr %3, i32 0, i32 0
  %5 = load i32, ptr %4, align 4, !tbaa !51
  ret i32 %5
}

; Function Attrs: mustprogress uwtable
define hidden void @_ZNK4cvc58internal20FloatingPointLiteral17convertToSBVTotalENS0_13BitVectorSizeERKNS0_12RoundingModeENS0_9BitVectorE(ptr dead_on_unwind noalias writable sret(%"class.cvc5::internal::BitVector") align 8 %0, ptr noundef nonnull align 8 dereferenceable(64) %1, i32 %2, ptr noundef nonnull align 4 dereferenceable(4) %3, ptr noundef %4) #4 align 2 personality ptr @__gxx_personality_v0 {
  %6 = alloca ptr, align 8
  %7 = alloca %"struct.cvc5::internal::BitVectorSize", align 4
  %8 = alloca ptr, align 8
  %9 = alloca ptr, align 8
  %10 = alloca ptr, align 8
  %11 = alloca %"class.cvc5::internal::symfpuLiteral::wrappedBitVector", align 8
  %12 = alloca i32, align 4
  %13 = alloca %"class.cvc5::internal::symfpuLiteral::wrappedBitVector", align 8
  %14 = alloca i32, align 4
  %15 = alloca ptr, align 8
  %16 = alloca i32, align 4
  store ptr %0, ptr %6, align 8
  %17 = getelementptr inbounds nuw %"struct.cvc5::internal::BitVectorSize", ptr %7, i32 0, i32 0
  store i32 %2, ptr %17, align 4
  store ptr %1, ptr %8, align 8, !tbaa !10
  store ptr %3, ptr %9, align 8, !tbaa !26
  store ptr %4, ptr %10, align 8, !tbaa !12
  %18 = load ptr, ptr %8, align 8
  call void @llvm.lifetime.start.p0(i64 24, ptr %11) #3
  %19 = getelementptr inbounds nuw %"class.cvc5::internal::FloatingPointLiteral", ptr %18, i32 0, i32 0
  %20 = load ptr, ptr %9, align 8, !tbaa !26
  %21 = getelementptr inbounds nuw %"class.cvc5::internal::FloatingPointLiteral", ptr %18, i32 0, i32 1
  call void @llvm.lifetime.start.p0(i64 4, ptr %12) #3
  %22 = call noundef i32 @_ZNK4cvc58internal13BitVectorSizecvjEv(ptr noundef nonnull align 4 dereferenceable(4) %7)
  store i32 %22, ptr %12, align 4, !tbaa !8
  call void @llvm.lifetime.start.p0(i64 24, ptr %13) #3
  call void @_ZN4cvc58internal13symfpuLiteral16wrappedBitVectorILb1EEC2ERKNS0_9BitVectorE(ptr noundef nonnull align 8 dereferenceable(24) %13, ptr noundef nonnull align 8 dereferenceable(24) %4)
  call void @llvm.lifetime.start.p0(i64 4, ptr %14) #3
  store i32 0, ptr %14, align 4, !tbaa !8
  invoke void @_ZN6symfpu17convertFloatToSBVIN4cvc58internal13symfpuLiteral6traitsEEENT_3sbvERKNS5_3fptERKNS5_2rmERKNS_13unpackedFloatIS5_EERKNS5_3bwtERKS6_SJ_(ptr dead_on_unwind writable sret(%"class.cvc5::internal::symfpuLiteral::wrappedBitVector") align 8 %11, ptr noundef nonnull align 4 dereferenceable(8) %19, ptr noundef nonnull align 4 dereferenceable(4) %20, ptr noundef nonnull align 8 dereferenceable(56) %21, ptr noundef nonnull align 4 dereferenceable(4) %12, ptr noundef nonnull align 8 dereferenceable(24) %13, ptr noundef nonnull align 4 dereferenceable(4) %14)
          to label %23 unwind label %25

23:                                               ; preds = %5
  invoke void @_ZN4cvc58internal9BitVectorC2ERKS1_(ptr noundef nonnull align 8 dereferenceable(24) %0, ptr noundef nonnull align 8 dereferenceable(24) %11)
          to label %24 unwind label %29

24:                                               ; preds = %23
  call void @_ZN4cvc58internal9BitVectorD2Ev(ptr noundef nonnull align 8 dereferenceable(24) %11) #3
  call void @llvm.lifetime.end.p0(i64 4, ptr %14) #3
  call void @_ZN4cvc58internal9BitVectorD2Ev(ptr noundef nonnull align 8 dereferenceable(24) %13) #3
  call void @llvm.lifetime.end.p0(i64 24, ptr %13) #3
  call void @llvm.lifetime.end.p0(i64 4, ptr %12) #3
  call void @llvm.lifetime.end.p0(i64 24, ptr %11) #3
  ret void

25:                                               ; preds = %5
  %26 = landingpad { ptr, i32 }
          cleanup
  %27 = extractvalue { ptr, i32 } %26, 0
  store ptr %27, ptr %15, align 8
  %28 = extractvalue { ptr, i32 } %26, 1
  store i32 %28, ptr %16, align 4
  br label %33

29:                                               ; preds = %23
  %30 = landingpad { ptr, i32 }
          cleanup
  %31 = extractvalue { ptr, i32 } %30, 0
  store ptr %31, ptr %15, align 8
  %32 = extractvalue { ptr, i32 } %30, 1
  store i32 %32, ptr %16, align 4
  call void @_ZN4cvc58internal9BitVectorD2Ev(ptr noundef nonnull align 8 dereferenceable(24) %11) #3
  br label %33

33:                                               ; preds = %29, %25
  call void @llvm.lifetime.end.p0(i64 4, ptr %14) #3
  call void @_ZN4cvc58internal9BitVectorD2Ev(ptr noundef nonnull align 8 dereferenceable(24) %13) #3
  call void @llvm.lifetime.end.p0(i64 24, ptr %13) #3
  call void @llvm.lifetime.end.p0(i64 4, ptr %12) #3
  call void @llvm.lifetime.end.p0(i64 24, ptr %11) #3
  br label %34

34:                                               ; preds = %33
  %35 = load ptr, ptr %15, align 8
  %36 = load i32, ptr %16, align 4
  %37 = insertvalue { ptr, i32 } poison, ptr %35, 0
  %38 = insertvalue { ptr, i32 } %37, i32 %36, 1
  resume { ptr, i32 } %38
}