; Function Attrs: mustprogress uwtable
define hidden void @_ZNK4cvc58internal20FloatingPointLiteral17convertToSBVTotalENS0_13BitVectorSizeERKNS0_12RoundingModeENS0_9BitVectorE(ptr dead_on_unwind noalias writable sret(%"class.cvc5::internal::BitVector") align 8 %0, ptr noundef nonnull align 8 dereferenceable(64) %1, i32 %2, ptr noundef nonnull align 4 dereferenceable(4) %3, ptr noundef %4) local_unnamed_addr #4 align 2 personality ptr @__gxx_personality_v0 {
  %6 = alloca %"class.cvc5::internal::symfpuLiteral::wrappedBitVector", align 8
  %7 = alloca i32, align 4
  %8 = alloca %"class.cvc5::internal::symfpuLiteral::wrappedBitVector", align 8
  %9 = alloca i32, align 4
  call void @llvm.lifetime.start.p0(i64 24, ptr nonnull %6) #16
  %10 = getelementptr inbounds nuw i8, ptr %1, i64 8
  call void @llvm.lifetime.start.p0(i64 4, ptr nonnull %7) #16
  store i32 %2, ptr %7, align 4, !tbaa !27
  call void @llvm.lifetime.start.p0(i64 24, ptr nonnull %8) #16
  %11 = load i32, ptr %4, align 8, !tbaa !9
  store i32 %11, ptr %8, align 8, !tbaa !9
  %12 = getelementptr inbounds nuw i8, ptr %8, i64 8
  %13 = getelementptr inbounds nuw i8, ptr %4, i64 8
  call void @__gmpz_init_set(ptr noundef nonnull align 8 dereferenceable(16) %12, ptr noundef nonnull align 8 dereferenceable(16) %13)
  call void @llvm.lifetime.start.p0(i64 4, ptr nonnull %9) #16
  store i32 0, ptr %9, align 4, !tbaa !27
  invoke void @_ZN6symfpu17convertFloatToSBVIN4cvc58internal13symfpuLiteral6traitsEEENT_3sbvERKNS5_3fptERKNS5_2rmERKNS_13unpackedFloatIS5_EERKNS5_3bwtERKS6_SJ_(ptr dead_on_unwind nonnull writable sret(%"class.cvc5::internal::symfpuLiteral::wrappedBitVector") align 8 %6, ptr noundef nonnull align 4 dereferenceable(8) %1, ptr noundef nonnull align 4 dereferenceable(4) %3, ptr noundef nonnull align 8 dereferenceable(56) %10, ptr noundef nonnull align 4 dereferenceable(4) %7, ptr noundef nonnull align 8 dereferenceable(24) %8, ptr noundef nonnull align 4 dereferenceable(4) %9)
          to label %14 unwind label %24

14:                                               ; preds = %5
  %15 = load i32, ptr %6, align 8, !tbaa !9
  store i32 %15, ptr %0, align 8, !tbaa !9
  %16 = getelementptr inbounds nuw i8, ptr %0, i64 8
  %17 = getelementptr inbounds nuw i8, ptr %6, i64 8
  invoke void @__gmpz_init_set(ptr noundef nonnull align 8 dereferenceable(16) %16, ptr noundef nonnull align 8 dereferenceable(16) %17)
          to label %_ZN4cvc58internal9BitVectorC2ERKS1_.exit unwind label %26

_ZN4cvc58internal9BitVectorC2ERKS1_.exit:         ; preds = %14
  invoke void @__gmpz_clear(ptr noundef nonnull align 8 dereferenceable(16) %17)
          to label %_ZN4cvc58internal9BitVectorD2Ev.exit unwind label %18

18:                                               ; preds = %_ZN4cvc58internal9BitVectorC2ERKS1_.exit
  %19 = landingpad { ptr, i32 }
          catch ptr null
  %20 = extractvalue { ptr, i32 } %19, 0
  call void @__clang_call_terminate(ptr %20) #17
  unreachable

_ZN4cvc58internal9BitVectorD2Ev.exit:             ; preds = %_ZN4cvc58internal9BitVectorC2ERKS1_.exit
  call void @llvm.lifetime.end.p0(i64 4, ptr nonnull %9) #16
  invoke void @__gmpz_clear(ptr noundef nonnull align 8 dereferenceable(16) %12)
          to label %_ZN4cvc58internal9BitVectorD2Ev.exit5 unwind label %21

21:                                               ; preds = %_ZN4cvc58internal9BitVectorD2Ev.exit
  %22 = landingpad { ptr, i32 }
          catch ptr null
  %23 = extractvalue { ptr, i32 } %22, 0
  call void @__clang_call_terminate(ptr %23) #17
  unreachable

_ZN4cvc58internal9BitVectorD2Ev.exit5:            ; preds = %_ZN4cvc58internal9BitVectorD2Ev.exit
  call void @llvm.lifetime.end.p0(i64 24, ptr nonnull %8) #16
  call void @llvm.lifetime.end.p0(i64 4, ptr nonnull %7) #16
  call void @llvm.lifetime.end.p0(i64 24, ptr nonnull %6) #16
  ret void

24:                                               ; preds = %5
  %25 = landingpad { ptr, i32 }
          cleanup
  br label %_ZN4cvc58internal9BitVectorD2Ev.exit6

26:                                               ; preds = %14
  %27 = landingpad { ptr, i32 }
          cleanup
  invoke void @__gmpz_clear(ptr noundef nonnull align 8 dereferenceable(16) %17)
          to label %_ZN4cvc58internal9BitVectorD2Ev.exit6 unwind label %28

28:                                               ; preds = %26
  %29 = landingpad { ptr, i32 }
          catch ptr null
  %30 = extractvalue { ptr, i32 } %29, 0
  call void @__clang_call_terminate(ptr %30) #17
  unreachable

_ZN4cvc58internal9BitVectorD2Ev.exit6:            ; preds = %26, %24
  %.pn = phi { ptr, i32 } [ %25, %24 ], [ %27, %26 ]
  call void @llvm.lifetime.end.p0(i64 4, ptr nonnull %9) #16
  invoke void @__gmpz_clear(ptr noundef nonnull align 8 dereferenceable(16) %12)
          to label %_ZN4cvc58internal9BitVectorD2Ev.exit7 unwind label %31

31:                                               ; preds = %_ZN4cvc58internal9BitVectorD2Ev.exit6
  %32 = landingpad { ptr, i32 }
          catch ptr null
  %33 = extractvalue { ptr, i32 } %32, 0
  call void @__clang_call_terminate(ptr %33) #17
  unreachable

_ZN4cvc58internal9BitVectorD2Ev.exit7:            ; preds = %_ZN4cvc58internal9BitVectorD2Ev.exit6
  call void @llvm.lifetime.end.p0(i64 24, ptr nonnull %8) #16
  call void @llvm.lifetime.end.p0(i64 4, ptr nonnull %7) #16
  call void @llvm.lifetime.end.p0(i64 24, ptr nonnull %6) #16
  resume { ptr, i32 } %.pn
}